; Function Attrs: mustprogress uwtable
define noundef double @_ZNK3g2o30OptimizationAlgorithmLevenberg17computeLambdaInitEv(ptr noundef nonnull readonly align 8 captures(none) dereferenceable(152) %0) local_unnamed_addr #4 align 2 {
  %2 = getelementptr inbounds nuw i8, ptr %0, i64 88
  %3 = load ptr, ptr %2, align 8, !tbaa !49
  %4 = getelementptr inbounds nuw i8, ptr %3, i64 40
  %5 = load double, ptr %4, align 8, !tbaa !48
  %6 = fcmp ogt double %5, 0.000000e+00
  br i1 %6, label %42, label %.preheader

.preheader:                                       ; preds = %1
  %7 = getelementptr inbounds nuw i8, ptr %0, i64 8
  %8 = load ptr, ptr %7, align 8, !tbaa !67
  %9 = getelementptr inbounds nuw i8, ptr %8, i64 304
  %10 = getelementptr inbounds nuw i8, ptr %8, i64 312
  %11 = load ptr, ptr %10, align 8, !tbaa !73
  %12 = load ptr, ptr %9, align 8, !tbaa !76
  %.not = icmp eq ptr %11, %12
  br i1 %.not, label %._crit_edge20, label %.lr.ph19

._crit_edge20:                                    ; preds = %._crit_edge, %.preheader
  %.014.lcssa = phi double [ 0.000000e+00, %.preheader ], [ %.1.lcssa, %._crit_edge ]
  %13 = getelementptr inbounds nuw i8, ptr %0, i64 104
  %14 = load double, ptr %13, align 8, !tbaa !37
  %15 = fmul double %.014.lcssa, %14
  br label %42

.lr.ph19:                                         ; preds = %.preheader, %._crit_edge
  %16 = phi ptr [ %23, %._crit_edge ], [ %8, %.preheader ]
  %17 = phi ptr [ %28, %._crit_edge ], [ %12, %.preheader ]
  %.01218 = phi i64 [ %24, %._crit_edge ], [ 0, %.preheader ]
  %.01417 = phi double [ %.1.lcssa, %._crit_edge ], [ 0.000000e+00, %.preheader ]
  %18 = getelementptr inbounds nuw ptr, ptr %17, i64 %.01218
  %19 = load ptr, ptr %18, align 8, !tbaa !77
  %20 = getelementptr inbounds nuw i8, ptr %19, i64 104
  %21 = load i32, ptr %20, align 8, !tbaa !79
  %22 = icmp sgt i32 %21, 0
  br i1 %22, label %.lr.ph, label %._crit_edge

._crit_edge.loopexit:                             ; preds = %.lr.ph
  %.pre = load ptr, ptr %7, align 8, !tbaa !67
  br label %._crit_edge

._crit_edge:                                      ; preds = %._crit_edge.loopexit, %.lr.ph19
  %23 = phi ptr [ %16, %.lr.ph19 ], [ %.pre, %._crit_edge.loopexit ]
  %.1.lcssa = phi double [ %.01417, %.lr.ph19 ], [ %.sroa.speculated, %._crit_edge.loopexit ]
  %24 = add nuw i64 %.01218, 1
  %25 = getelementptr inbounds nuw i8, ptr %23, i64 304
  %26 = getelementptr inbounds nuw i8, ptr %23, i64 312
  %27 = load ptr, ptr %26, align 8, !tbaa !73
  %28 = load ptr, ptr %25, align 8, !tbaa !76
  %29 = ptrtoint ptr %27 to i64
  %30 = ptrtoint ptr %28 to i64
  %31 = sub i64 %29, %30
  %32 = ashr exact i64 %31, 3
  %33 = icmp ult i64 %24, %32
  br i1 %33, label %.lr.ph19, label %._crit_edge20, !llvm.loop !94

.lr.ph:                                           ; preds = %.lr.ph19, %.lr.ph
  %.016 = phi i32 [ %41, %.lr.ph ], [ 0, %.lr.ph19 ]
  %.115 = phi double [ %.sroa.speculated, %.lr.ph ], [ %.01417, %.lr.ph19 ]
  %34 = load ptr, ptr %19, align 8, !tbaa !8
  %35 = getelementptr inbounds nuw i8, ptr %34, i64 40
  %36 = load ptr, ptr %35, align 8
  %37 = tail call noundef nonnull align 8 dereferenceable(8) ptr %36(ptr noundef nonnull align 8 dereferenceable(128) %19, i32 noundef %.016, i32 noundef %.016)
  %38 = load double, ptr %37, align 8, !tbaa !48
  %39 = tail call double @llvm.fabs.f64(double %38)
  %40 = fcmp olt double %39, %.115
  %.sroa.speculated = select i1 %40, double %.115, double %39
  %41 = add nuw nsw i32 %.016, 1
  %exitcond.not = icmp eq i32 %41, %21
  br i1 %exitcond.not, label %._crit_edge.loopexit, label %.lr.ph, !llvm.loop !95

42:                                               ; preds = %1, %._crit_edge20
  %.011 = phi double [ %15, %._crit_edge20 ], [ %5, %1 ]
  ret double %.011
}